; ModuleID = '45/2396.c'
source_filename = "45/2396.c"
target datalayout = "e-m:e-p270:32:32-p271:32:32-p272:64:64-i64:64-f80:128-n8:16:32:64-S128"
target triple = "x86_64-pc-linux-gnu"

@.str = private unnamed_addr constant [6 x i8] c"%s %s\00", align 1
@.str.1 = private unnamed_addr constant [2 x i8] c"0\00", align 1
@.str.2 = private unnamed_addr constant [3 x i8] c"%d\00", align 1

; Function Attrs: noinline nounwind uwtable
define dso_local i32 @main() #0 {
  %1 = alloca i32, align 4
  %2 = alloca [51 x i8], align 16
  %3 = alloca [51 x i8], align 16
  %4 = alloca i32, align 4
  %5 = alloca i32, align 4
  %6 = alloca i32, align 4
  %7 = alloca i32, align 4
  %8 = alloca i32, align 4
  store i32 0, i32* %1, align 4
  %9 = getelementptr inbounds [51 x i8], [51 x i8]* %2, i64 0, i64 0
  %10 = getelementptr inbounds [51 x i8], [51 x i8]* %3, i64 0, i64 0
  %11 = call i32 (i8*, ...) @__isoc99_scanf(i8* getelementptr inbounds ([6 x i8], [6 x i8]* @.str, i64 0, i64 0), i8* %9, i8* %10)
  %12 = getelementptr inbounds [51 x i8], [51 x i8]* %2, i64 0, i64 0
  %13 = call i64 @strlen(i8* %12) #3
  %14 = trunc i64 %13 to i32
  store i32 %14, i32* %4, align 4
  %15 = getelementptr inbounds [51 x i8], [51 x i8]* %3, i64 0, i64 0
  %16 = call i64 @strlen(i8* %15) #3
  %17 = trunc i64 %16 to i32
  store i32 %17, i32* %5, align 4
  %18 = load i32, i32* %5, align 4
  %19 = load i32, i32* %4, align 4
  %20 = icmp eq i32 %18, %19
  br i1 %20, label %21, label %23

21:                                               ; preds = %0
  %22 = call i32 (i8*, ...) @printf(i8* getelementptr inbounds ([2 x i8], [2 x i8]* @.str.1, i64 0, i64 0))
  br label %23

23:                                               ; preds = %21, %0
  store i32 0, i32* %7, align 4
  br label %24

24:                                               ; preds = %64, %23
  %25 = load i32, i32* %7, align 4
  %26 = load i32, i32* %5, align 4
  %27 = load i32, i32* %4, align 4
  %28 = sub nsw i32 %26, %27
  %29 = add nsw i32 %28, 5
  %30 = icmp sle i32 %25, %29
  br i1 %30, label %31, label %67

31:                                               ; preds = %24
  store i32 0, i32* %6, align 4
  %32 = load i32, i32* %7, align 4
  store i32 %32, i32* %8, align 4
  br label %33

33:                                               ; preds = %51, %31
  %34 = load i32, i32* %6, align 4
  %35 = sext i32 %34 to i64
  %36 = getelementptr inbounds [51 x i8], [51 x i8]* %2, i64 0, i64 %35
  %37 = load i8, i8* %36, align 1
  %38 = sext i8 %37 to i32
  %39 = load i32, i32* %8, align 4
  %40 = sext i32 %39 to i64
  %41 = getelementptr inbounds [51 x i8], [51 x i8]* %3, i64 0, i64 %40
  %42 = load i8, i8* %41, align 1
  %43 = sext i8 %42 to i32
  %44 = icmp eq i32 %38, %43
  br i1 %44, label %45, label %49

45:                                               ; preds = %33
  %46 = load i32, i32* %6, align 4
  %47 = load i32, i32* %4, align 4
  %48 = icmp slt i32 %46, %47
  br label %49

49:                                               ; preds = %45, %33
  %50 = phi i1 [ false, %33 ], [ %48, %45 ]
  br i1 %50, label %51, label %56

51:                                               ; preds = %49
  %52 = load i32, i32* %6, align 4
  %53 = add nsw i32 %52, 1
  store i32 %53, i32* %6, align 4
  %54 = load i32, i32* %8, align 4
  %55 = add nsw i32 %54, 1
  store i32 %55, i32* %8, align 4
  br label %33

56:                                               ; preds = %49
  %57 = load i32, i32* %6, align 4
  %58 = load i32, i32* %4, align 4
  %59 = icmp eq i32 %57, %58
  br i1 %59, label %60, label %63

60:                                               ; preds = %56
  %61 = load i32, i32* %7, align 4
  %62 = call i32 (i8*, ...) @printf(i8* getelementptr inbounds ([3 x i8], [3 x i8]* @.str.2, i64 0, i64 0), i32 %61)
  store i32 200, i32* %6, align 4
  store i32 200, i32* %7, align 4
  br label %63

63:                                               ; preds = %60, %56
  br label %64

64:                                               ; preds = %63
  %65 = load i32, i32* %7, align 4
  %66 = add nsw i32 %65, 1
  store i32 %66, i32* %7, align 4
  br label %24

67:                                               ; preds = %24
  ret i32 0
}

declare dso_local i32 @__isoc99_scanf(i8*, ...) #1

; Function Attrs: nounwind readonly
declare dso_local i64 @strlen(i8*) #2

declare dso_local i32 @printf(i8*, ...) #1


!llvm.module.flags = !{!0}
!llvm.ident = !{!1}

!0 = !{i32 1, !"wchar_size", i32 4}
!1 = !{!"clang version 10.0.0-4ubuntu1 "}
